target datalayout = "e-m:e-p270:32:32-p271:32:32-p272:64:64-i64:64-i128:128-f80:128-n8:16:32:64-S128"
target triple = "x86_64-pc-linux-gnu"

%struct.client_response = type { ptr }

@plugin_type = external constant [0 x i8], align 1
@.str.53 = private unnamed_addr constant [4 x i8] c"key\00", align 1
@.str.66 = private unnamed_addr constant [60 x i8] c"%s: %s: mpi/pmi2: in _handle_info_getnodeattr from lrank %d\00", align 1
@__func__._handle_info_getnodeattr = private unnamed_addr constant [25 x i8] c"_handle_info_getnodeattr\00", align 1
@.str.67 = private unnamed_addr constant [5 x i8] c"wait\00", align 1
@.str.68 = private unnamed_addr constant [36 x i8] c"cmd=info-getnodeattr-response;rc=0;\00", align 1
@.str.69 = private unnamed_addr constant [13 x i8] c"found=FALSE;\00", align 1
@.str.70 = private unnamed_addr constant [21 x i8] c"found=TRUE;value=%s;\00", align 1
@.str.71 = private unnamed_addr constant [47 x i8] c"%s: %s: mpi/pmi2: out _handle_info_getnodeattr\00", align 1

; Function Attrs: nounwind uwtable
define internal i32 @_handle_info_getnodeattr(i32 noundef %0, i32 noundef %1, ptr noundef %2) #0 {
  %4 = alloca i32, align 4
  %5 = alloca i32, align 4
  %6 = alloca ptr, align 8
  %7 = alloca i32, align 4
  %8 = alloca ptr, align 8
  %9 = alloca ptr, align 8
  %10 = alloca ptr, align 8
  %11 = alloca i8, align 1
  store i32 %0, ptr %4, align 4
  store i32 %1, ptr %5, align 4
  store ptr %2, ptr %6, align 8
  call void @llvm.lifetime.start.p0(i64 4, ptr %7) #6
  store i32 0, ptr %7, align 4
  call void @llvm.lifetime.start.p0(i64 8, ptr %8) #6
  call void @llvm.lifetime.start.p0(i64 8, ptr %9) #6
  store ptr null, ptr %9, align 8
  call void @llvm.lifetime.start.p0(i64 8, ptr %10) #6
  call void @llvm.lifetime.start.p0(i64 1, ptr %11) #6
  store i8 0, ptr %11, align 1
  br label %12

12:                                               ; preds = %3
  br label %13

13:                                               ; preds = %12
  %14 = call i32 @slurm_get_log_level()
  %15 = icmp sge i32 %14, 7
  br i1 %15, label %16, label %18

16:                                               ; preds = %13
  %17 = load i32, ptr %5, align 4
  call void (i32, ptr, ...) @slurm_log_var(i32 noundef 7, ptr noundef @.str.66, ptr noundef @plugin_type, ptr noundef @__func__._handle_info_getnodeattr, i32 noundef %17)
  br label %18

18:                                               ; preds = %16, %13
  br label %19

19:                                               ; preds = %18
  br label %20

20:                                               ; preds = %19
  br label %21

21:                                               ; preds = %20
  br label %22

22:                                               ; preds = %21
  %23 = load ptr, ptr %6, align 8
  %24 = call i32 @client_req_parse_body(ptr noundef %23)
  %25 = load ptr, ptr %6, align 8
  %26 = call zeroext i1 @client_req_get_str(ptr noundef %25, ptr noundef @.str.53, ptr noundef %9)
  %27 = load ptr, ptr %6, align 8
  %28 = call zeroext i1 @client_req_get_bool(ptr noundef %27, ptr noundef @.str.67, ptr noundef %11)
  %29 = load ptr, ptr %9, align 8
  %30 = call ptr @node_attr_get(ptr noundef %29)
  store ptr %30, ptr %10, align 8
  %31 = load ptr, ptr %10, align 8
  %32 = icmp ne ptr %31, null
  br i1 %32, label %36, label %33

33:                                               ; preds = %22
  %34 = load i8, ptr %11, align 1, !range !13, !noundef !14
  %35 = trunc i8 %34 to i1
  br i1 %35, label %63, label %36

36:                                               ; preds = %33, %22
  %37 = call ptr @client_resp_new()
  store ptr %37, ptr %8, align 8
  br label %38

38:                                               ; preds = %36
  %39 = load ptr, ptr %8, align 8
  %40 = getelementptr inbounds nuw %struct.client_response, ptr %39, i32 0, i32 0
  call void (ptr, ptr, ...) @slurm_xstrfmtcat(ptr noundef %40, ptr noundef @.str.68)
  br label %41

41:                                               ; preds = %38
  br label %42

42:                                               ; preds = %41
  %43 = load ptr, ptr %10, align 8
  %44 = icmp eq ptr %43, null
  br i1 %44, label %45, label %51

45:                                               ; preds = %42
  br label %46

46:                                               ; preds = %45
  %47 = load ptr, ptr %8, align 8
  %48 = getelementptr inbounds nuw %struct.client_response, ptr %47, i32 0, i32 0
  call void (ptr, ptr, ...) @slurm_xstrfmtcat(ptr noundef %48, ptr noundef @.str.69)
  br label %49

49:                                               ; preds = %46
  br label %50

50:                                               ; preds = %49
  br label %58

51:                                               ; preds = %42
  br label %52

52:                                               ; preds = %51
  %53 = load ptr, ptr %8, align 8
  %54 = getelementptr inbounds nuw %struct.client_response, ptr %53, i32 0, i32 0
  %55 = load ptr, ptr %10, align 8
  call void (ptr, ptr, ...) @slurm_xstrfmtcat(ptr noundef %54, ptr noundef @.str.70, ptr noundef %55)
  br label %56

56:                                               ; preds = %52
  br label %57

57:                                               ; preds = %56
  br label %58

58:                                               ; preds = %57, %50
  %59 = load ptr, ptr %8, align 8
  %60 = load i32, ptr %4, align 4
  %61 = call i32 @client_resp_send(ptr noundef %59, i32 noundef %60)
  store i32 %61, ptr %7, align 4
  %62 = load ptr, ptr %8, align 8
  call void @client_resp_free(ptr noundef %62)
  br label %68

63:                                               ; preds = %33
  %64 = load i32, ptr %4, align 4
  %65 = load i32, ptr %5, align 4
  %66 = load ptr, ptr %9, align 8
  %67 = call i32 @enqueue_nag_req(i32 noundef %64, i32 noundef %65, ptr noundef %66)
  store i32 %67, ptr %7, align 4
  br label %68

68:                                               ; preds = %63, %58
  call void @slurm_xfree(ptr noundef %9)
  br label %69

69:                                               ; preds = %68
  br label %70

70:                                               ; preds = %69
  %71 = call i32 @slurm_get_log_level()
  %72 = icmp sge i32 %71, 7
  br i1 %72, label %73, label %74

73:                                               ; preds = %70
  call void (i32, ptr, ...) @slurm_log_var(i32 noundef 7, ptr noundef @.str.71, ptr noundef @plugin_type, ptr noundef @__func__._handle_info_getnodeattr)
  br label %74

74:                                               ; preds = %73, %70
  br label %75

75:                                               ; preds = %74
  br label %76

76:                                               ; preds = %75
  br label %77

77:                                               ; preds = %76
  br label %78

78:                                               ; preds = %77
  %79 = load i32, ptr %7, align 4
  call void @llvm.lifetime.end.p0(i64 1, ptr %11) #6
  call void @llvm.lifetime.end.p0(i64 8, ptr %10) #6
  call void @llvm.lifetime.end.p0(i64 8, ptr %9) #6
  call void @llvm.lifetime.end.p0(i64 8, ptr %8) #6
  call void @llvm.lifetime.end.p0(i64 4, ptr %7) #6
  ret i32 %79
}