; Function Attrs: nounwind uwtable
define internal i32 @_handle_info_getnodeattr(i32 noundef %0, i32 noundef %1, ptr noundef %2) #0 {
  %4 = alloca ptr, align 8
  %5 = alloca i8, align 1
  call void @llvm.lifetime.start.p0(i64 8, ptr nonnull %4) #7
  store ptr null, ptr %4, align 8
  call void @llvm.lifetime.start.p0(i64 1, ptr nonnull %5) #7
  store i8 0, ptr %5, align 1
  %6 = tail call i32 @slurm_get_log_level() #7
  %7 = icmp sgt i32 %6, 6
  br i1 %7, label %8, label %9

8:                                                ; preds = %3
  tail call void (i32, ptr, ...) @slurm_log_var(i32 noundef 7, ptr noundef nonnull @.str.66, ptr noundef nonnull @plugin_type, ptr noundef nonnull @__func__._handle_info_getnodeattr, i32 noundef %1) #7
  br label %9

9:                                                ; preds = %8, %3
  %10 = tail call i32 @client_req_parse_body(ptr noundef %2) #7
  %11 = call zeroext i1 @client_req_get_str(ptr noundef %2, ptr noundef nonnull @.str.53, ptr noundef nonnull %4) #7
  %12 = call zeroext i1 @client_req_get_bool(ptr noundef %2, ptr noundef nonnull @.str.67, ptr noundef nonnull %5) #7
  %13 = load ptr, ptr %4, align 8
  %14 = call ptr @node_attr_get(ptr noundef %13) #7
  %.not = icmp eq ptr %14, null
  br i1 %.not, label %15, label %18

15:                                               ; preds = %9
  %16 = load i8, ptr %5, align 1, !range !13, !noundef !14
  %17 = trunc nuw i8 %16 to i1
  br i1 %17, label %24, label %18

18:                                               ; preds = %15, %9
  %19 = call ptr @client_resp_new() #7
  call void (ptr, ptr, ...) @slurm_xstrfmtcat(ptr noundef %19, ptr noundef nonnull @.str.68) #7
  br i1 %.not, label %20, label %21

20:                                               ; preds = %18
  call void (ptr, ptr, ...) @slurm_xstrfmtcat(ptr noundef %19, ptr noundef nonnull @.str.69) #7
  br label %22

21:                                               ; preds = %18
  call void (ptr, ptr, ...) @slurm_xstrfmtcat(ptr noundef %19, ptr noundef nonnull @.str.70, ptr noundef nonnull %14) #7
  br label %22

22:                                               ; preds = %21, %20
  %23 = call i32 @client_resp_send(ptr noundef %19, i32 noundef %0) #7
  call void @client_resp_free(ptr noundef %19) #7
  br label %27

24:                                               ; preds = %15
  %25 = load ptr, ptr %4, align 8
  %26 = call i32 @enqueue_nag_req(i32 noundef %0, i32 noundef %1, ptr noundef %25) #7
  br label %27

27:                                               ; preds = %24, %22
  %.0 = phi i32 [ %23, %22 ], [ %26, %24 ]
  call void @slurm_xfree(ptr noundef nonnull %4) #7
  %28 = call i32 @slurm_get_log_level() #7
  %29 = icmp sgt i32 %28, 6
  br i1 %29, label %30, label %31

30:                                               ; preds = %27
  call void (i32, ptr, ...) @slurm_log_var(i32 noundef 7, ptr noundef nonnull @.str.71, ptr noundef nonnull @plugin_type, ptr noundef nonnull @__func__._handle_info_getnodeattr) #7
  br label %31

31:                                               ; preds = %30, %27
  call void @llvm.lifetime.end.p0(i64 1, ptr nonnull %5) #7
  call void @llvm.lifetime.end.p0(i64 8, ptr nonnull %4) #7
  ret i32 %.0
}